; Function Attrs: nounwind sspstrong uwtable
define dso_local range(i32 -38, 1) i32 @virtio_bus_grab_ioeventfd(ptr noundef %bus) local_unnamed_addr #0 {
entry:
  %call.i = tail call ptr @object_get_class(ptr noundef %bus) #5
  %call1.i = tail call ptr @object_class_dynamic_cast_assert(ptr noundef %call.i, ptr noundef nonnull @.str.11, ptr noundef nonnull @.str.12, i32 noundef 36, ptr noundef nonnull @__func__.VIRTIO_BUS_GET_CLASS) #5
  %ioeventfd_assign = getelementptr inbounds nuw i8, ptr %call1.i, i64 304
  %0 = load ptr, ptr %ioeventfd_assign, align 8
  %tobool.not = icmp eq ptr %0, null
  br i1 %tobool.not, label %return, label %if.end

if.end:                                           ; preds = %entry
  %ioeventfd_grabbed = getelementptr inbounds nuw i8, ptr %bus, i64 124
  %1 = load i32, ptr %ioeventfd_grabbed, align 4
  %cmp = icmp eq i32 %1, 0
  br i1 %cmp, label %land.lhs.true, label %if.end4

land.lhs.true:                                    ; preds = %if.end
  %ioeventfd_started = getelementptr inbounds nuw i8, ptr %bus, i64 120
  %2 = load i8, ptr %ioeventfd_started, align 8
  %tobool1 = trunc i8 %2 to i1
  br i1 %tobool1, label %if.then2.i, label %if.end4

if.then2.i:                                       ; preds = %land.lhs.true
  %3 = getelementptr i8, ptr %bus, i64 80
  %bus.val.i = load ptr, ptr %3, align 8
  %tobool.not.i.i = icmp eq ptr %bus.val.i, null
  br i1 %tobool.not.i.i, label %virtio_bus_stop_ioeventfd.exit, label %cond.true.i.i

cond.true.i.i:                                    ; preds = %if.then2.i
  %child.i.i = getelementptr inbounds nuw i8, ptr %bus.val.i, i64 16
  %4 = load ptr, ptr %child.i.i, align 8
  br label %virtio_bus_stop_ioeventfd.exit

virtio_bus_stop_ioeventfd.exit:                   ; preds = %cond.true.i.i, %if.then2.i
  %cond.i.i = phi ptr [ %4, %cond.true.i.i ], [ null, %if.then2.i ]
  %call.i.i = tail call ptr @object_get_class(ptr noundef %cond.i.i) #5
  %call1.i.i = tail call ptr @object_class_dynamic_cast_assert(ptr noundef %call.i.i, ptr noundef nonnull @.str.13, ptr noundef nonnull @.str.14, i32 noundef 85, ptr noundef nonnull @__func__.VIRTIO_DEVICE_GET_CLASS) #5
  %stop_ioeventfd.i = getelementptr inbounds nuw i8, ptr %call1.i.i, i64 304
  %5 = load ptr, ptr %stop_ioeventfd.i, align 8
  tail call void %5(ptr noundef %cond.i.i) #5
  store i8 1, ptr %ioeventfd_started, align 8
  %.pre = load i32, ptr %ioeventfd_grabbed, align 4
  br label %if.end4

if.end4:                                          ; preds = %virtio_bus_stop_ioeventfd.exit, %land.lhs.true, %if.end
  %6 = phi i32 [ %.pre, %virtio_bus_stop_ioeventfd.exit ], [ 0, %land.lhs.true ], [ %1, %if.end ]
  %inc = add i32 %6, 1
  store i32 %inc, ptr %ioeventfd_grabbed, align 4
  br label %return

return:                                           ; preds = %entry, %if.end4
  %retval.0 = phi i32 [ 0, %if.end4 ], [ -38, %entry ]
  ret i32 %retval.0
}